; Function Attrs: mustprogress nounwind uwtable
define dso_local void @_ZN5clang27MultiplexExternalSemaSource11CorrectTypoERKNS_19DeclarationNameInfoEiPNS_5ScopeEPNS_12CXXScopeSpecERNS_27CorrectionCandidateCallbackEPNS_11DeclContextEbPKNS_21ObjCObjectPointerTypeE(ptr dead_on_unwind noalias writable sret(%"class.clang::TypoCorrection") align 8 %0, ptr noundef nonnull align 8 dereferenceable(48) %1, ptr noundef nonnull align 8 dereferenceable(24) %2, i32 noundef %3, ptr noundef %4, ptr noundef %5, ptr noundef nonnull align 8 dereferenceable(32) %6, ptr noundef %7, i1 noundef zeroext %8, ptr noundef %9) unnamed_addr #0 align 2 {
  %11 = getelementptr inbounds nuw i8, ptr %1, i64 16
  %12 = tail call noundef i64 @_ZNK4llvm15SmallVectorBaseIjE4sizeEv(ptr noundef nonnull align 8 dereferenceable(16) %11) #6
  %.not18 = icmp eq i64 %12, 0
  br i1 %.not18, label %._crit_edge, label %.lr.ph

.lr.ph:                                           ; preds = %10, %20
  %.01517 = phi i64 [ %21, %20 ], [ 0, %10 ]
  %13 = load ptr, ptr %11, align 8
  %14 = getelementptr inbounds ptr, ptr %13, i64 %.01517
  %15 = load ptr, ptr %14, align 8
  %16 = load ptr, ptr %15, align 8
  %17 = getelementptr inbounds i8, ptr %16, i64 368
  %18 = load ptr, ptr %17, align 8
  tail call void %18(ptr dead_on_unwind writable sret(%"class.clang::TypoCorrection") align 8 %0, ptr noundef nonnull align 8 dereferenceable(16) %15, ptr noundef nonnull align 8 dereferenceable(24) %2, i32 noundef %3, ptr noundef %4, ptr noundef %5, ptr noundef nonnull align 8 dereferenceable(32) %6, ptr noundef %7, i1 noundef zeroext %8, ptr noundef %9) #6
  %19 = load i64, ptr %0, align 8
  %.not = icmp eq i64 %19, 0
  br i1 %.not, label %20, label %.loopexit

20:                                               ; preds = %.lr.ph
  tail call void @_ZN5clang14TypoCorrectionD2Ev(ptr noundef nonnull align 8 dereferenceable(88) %0) #6
  %21 = add nuw i64 %.01517, 1
  %exitcond.not = icmp eq i64 %21, %12
  br i1 %exitcond.not, label %._crit_edge, label %.lr.ph, !llvm.loop !43

._crit_edge:                                      ; preds = %20, %10
  %22 = getelementptr inbounds nuw i8, ptr %0, i64 16
  %23 = getelementptr inbounds i8, ptr %0, i64 32
  tail call void @llvm.memset.p0.i64(ptr noundef nonnull align 8 dereferenceable(88) %0, i8 0, i64 88, i1 false)
  tail call void @_ZN4llvm15SmallVectorBaseIjEC2EPvm(ptr noundef nonnull align 8 dereferenceable(16) %22, ptr noundef nonnull %23, i64 noundef 1) #6
  %24 = getelementptr inbounds nuw i8, ptr %0, i64 40
  %25 = getelementptr inbounds nuw i8, ptr %0, i64 64
  tail call void @llvm.memset.p0.i64(ptr noundef nonnull align 8 dereferenceable(24) %25, i8 0, i64 24, i1 false)
  tail call void @llvm.memset.p0.i64(ptr noundef nonnull align 8 dereferenceable(22) %24, i8 0, i64 22, i1 false)
  br label %.loopexit

.loopexit:                                        ; preds = %.lr.ph, %._crit_edge
  ret void
}